target datalayout = "e-m:e-p270:32:32-p271:32:32-p272:64:64-i64:64-i128:128-f80:128-n8:16:32:64-S128"
target triple = "x86_64-pc-linux-gnu"

%struct.lua_State = type { %struct.GCRef, i8, i8, i8, i8, %struct.MRef, %struct.GCRef, ptr, ptr, %struct.MRef, %struct.MRef, %struct.GCRef, %struct.GCRef, ptr, i32 }
%struct.MRef = type { i64 }
%struct.GCRef = type { i64 }
%struct.global_State = type { ptr, ptr, %struct.GCState, %struct.GCstr, i8, i8, i8, i8, %struct.StrInternState, i32, %struct.GCRef, %struct.SBuf, %union.TValue, %union.TValue, %struct.Node, %union.TValue, %struct.GCupval, i32, i32, ptr, ptr, ptr, i32, i32, %struct.GCRef, %struct.MRef, %struct.MRef, %struct.PRNGState, [39 x %struct.GCRef] }
%struct.GCState = type { i64, i64, i8, i8, i8, i8, i32, %struct.GCRef, %struct.MRef, %struct.GCRef, %struct.GCRef, %struct.GCRef, %struct.GCRef, i64, i64, i32, i32, %struct.MRef }
%struct.GCstr = type { %struct.GCRef, i8, i8, i8, i8, i32, i32, i32 }
%struct.StrInternState = type { ptr, i32, i32, i32, i8, i8, i8, i8, i64 }
%struct.SBuf = type { ptr, ptr, ptr, %struct.MRef }
%struct.Node = type { %union.TValue, %union.TValue, %struct.MRef }
%union.TValue = type { i64 }
%struct.GCupval = type { %struct.GCRef, i8, i8, i8, i8, %union.anon, %struct.MRef, i32 }
%union.anon = type { %struct.anon.1 }
%struct.anon.1 = type { %struct.GCRef, %struct.GCRef }
%struct.PRNGState = type { [4 x i64] }
%struct.GChead = type { %struct.GCRef, i8, i8, i8, i8, %struct.GCRef, %struct.GCRef, %struct.GCRef }
%struct.GCtab = type { %struct.GCRef, i8, i8, i8, i8, %struct.MRef, %struct.GCRef, %struct.GCRef, %struct.MRef, i32, i32, %struct.MRef }
%struct.GCfuncC = type { %struct.GCRef, i8, i8, i8, i8, %struct.GCRef, %struct.GCRef, %struct.MRef, ptr, [1 x %union.TValue] }

@.str.2 = private unnamed_addr constant [24 x i8] c"store to dead GC object\00", align 1

; Function Attrs: alwaysinline nounwind uwtable
define internal void @checklivetv(ptr noundef %0, ptr noundef %1, ptr noundef %2) #3 {
  %4 = alloca ptr, align 8
  %5 = alloca ptr, align 8
  %6 = alloca ptr, align 8
  store ptr %0, ptr %4, align 8, !tbaa !4
  store ptr %1, ptr %5, align 8, !tbaa !48
  store ptr %2, ptr %6, align 8, !tbaa !9
  ret void
}

; Function Attrs: alwaysinline nounwind uwtable
define internal void @setgcVraw(ptr noundef %0, ptr noundef %1, i32 noundef %2) #3 {
  %4 = alloca ptr, align 8
  %5 = alloca ptr, align 8
  %6 = alloca i32, align 4
  store ptr %0, ptr %4, align 8, !tbaa !48
  store ptr %1, ptr %5, align 8, !tbaa !35
  store i32 %2, ptr %6, align 4, !tbaa !24
  %7 = load ptr, ptr %5, align 8, !tbaa !35
  %8 = ptrtoint ptr %7 to i64
  %9 = load i32, ptr %6, align 4, !tbaa !24
  %10 = zext i32 %9 to i64
  %11 = shl i64 %10, 47
  %12 = or i64 %8, %11
  %13 = load ptr, ptr %4, align 8, !tbaa !48
  %14 = getelementptr inbounds nuw %struct.GCRef, ptr %13, i32 0, i32 0
  store i64 %12, ptr %14, align 8, !tbaa !23
  ret void
}

; Function Attrs: alwaysinline nounwind uwtable
define internal void @setgcV(ptr noundef %0, ptr noundef %1, ptr noundef %2, i32 noundef %3) #3 {
  %5 = alloca ptr, align 8
  %6 = alloca ptr, align 8
  %7 = alloca ptr, align 8
  %8 = alloca i32, align 4
  store ptr %0, ptr %5, align 8, !tbaa !4
  store ptr %1, ptr %6, align 8, !tbaa !48
  store ptr %2, ptr %7, align 8, !tbaa !35
  store i32 %3, ptr %8, align 4, !tbaa !24
  %9 = load ptr, ptr %6, align 8, !tbaa !48
  %10 = load ptr, ptr %7, align 8, !tbaa !35
  %11 = load i32, ptr %8, align 4, !tbaa !24
  call void @setgcVraw(ptr noundef %9, ptr noundef %10, i32 noundef %11)
  %12 = load ptr, ptr %5, align 8, !tbaa !4
  %13 = load ptr, ptr %6, align 8, !tbaa !48
  call void @checklivetv(ptr noundef %12, ptr noundef %13, ptr noundef @.str.2)
  ret void
}

; Function Attrs: alwaysinline nounwind uwtable
define internal void @lj_gc_barrierback(ptr noundef %0, ptr noundef %1) #3 {
  %3 = alloca ptr, align 8
  %4 = alloca ptr, align 8
  %5 = alloca ptr, align 8
  store ptr %0, ptr %3, align 8, !tbaa !33
  store ptr %1, ptr %4, align 8, !tbaa !19
  call void @llvm.lifetime.start.p0(i64 8, ptr %5) #9
  %6 = load ptr, ptr %4, align 8, !tbaa !19
  store ptr %6, ptr %5, align 8, !tbaa !35
  %7 = load ptr, ptr %5, align 8, !tbaa !35
  %8 = getelementptr inbounds nuw %struct.GChead, ptr %7, i32 0, i32 1
  %9 = load i8, ptr %8, align 8, !tbaa !23
  %10 = zext i8 %9 to i32
  %11 = and i32 %10, 251
  %12 = trunc i32 %11 to i8
  store i8 %12, ptr %8, align 8, !tbaa !23
  %13 = load ptr, ptr %3, align 8, !tbaa !33
  %14 = getelementptr inbounds nuw %struct.global_State, ptr %13, i32 0, i32 2
  %15 = getelementptr inbounds nuw %struct.GCState, ptr %14, i32 0, i32 10
  %16 = getelementptr inbounds nuw %struct.GCRef, ptr %15, i32 0, i32 0
  %17 = load i64, ptr %16, align 8, !tbaa !37
  %18 = load ptr, ptr %4, align 8, !tbaa !19
  %19 = getelementptr inbounds nuw %struct.GCtab, ptr %18, i32 0, i32 6
  %20 = getelementptr inbounds nuw %struct.GCRef, ptr %19, i32 0, i32 0
  store i64 %17, ptr %20, align 8, !tbaa !47
  %21 = load ptr, ptr %5, align 8, !tbaa !35
  %22 = ptrtoint ptr %21 to i64
  %23 = load ptr, ptr %3, align 8, !tbaa !33
  %24 = getelementptr inbounds nuw %struct.global_State, ptr %23, i32 0, i32 2
  %25 = getelementptr inbounds nuw %struct.GCState, ptr %24, i32 0, i32 10
  %26 = getelementptr inbounds nuw %struct.GCRef, ptr %25, i32 0, i32 0
  store i64 %22, ptr %26, align 8, !tbaa !37
  call void @llvm.lifetime.end.p0(i64 8, ptr %5) #9
  ret void
}

; Function Attrs: alwaysinline nounwind uwtable
define internal void @setfuncV(ptr noundef %0, ptr noundef %1, ptr noundef %2) #3 {
  %4 = alloca ptr, align 8
  %5 = alloca ptr, align 8
  %6 = alloca ptr, align 8
  store ptr %0, ptr %4, align 8, !tbaa !4
  store ptr %1, ptr %5, align 8, !tbaa !48
  store ptr %2, ptr %6, align 8, !tbaa !21
  %7 = load ptr, ptr %4, align 8, !tbaa !4
  %8 = load ptr, ptr %5, align 8, !tbaa !48
  %9 = load ptr, ptr %6, align 8, !tbaa !21
  call void @setgcV(ptr noundef %7, ptr noundef %8, ptr noundef %9, i32 noundef -9)
  ret void
}

; Function Attrs: nounwind uwtable
define hidden ptr @lj_lib_pushcc(ptr noundef %0, ptr noundef %1, i32 noundef %2, i32 noundef %3) #0 {
  %5 = alloca ptr, align 8
  %6 = alloca ptr, align 8
  %7 = alloca i32, align 4
  %8 = alloca i32, align 4
  %9 = alloca ptr, align 8
  store ptr %0, ptr %5, align 8, !tbaa !4
  store ptr %1, ptr %6, align 8, !tbaa !11
  store i32 %2, ptr %7, align 4, !tbaa !24
  store i32 %3, ptr %8, align 4, !tbaa !24
  call void @llvm.lifetime.start.p0(i64 8, ptr %9) #9
  %10 = load ptr, ptr %5, align 8, !tbaa !4
  %11 = load ptr, ptr %6, align 8, !tbaa !11
  %12 = load i32, ptr %8, align 4, !tbaa !24
  call void @lua_pushcclosure(ptr noundef %10, ptr noundef %11, i32 noundef %12)
  %13 = load ptr, ptr %5, align 8, !tbaa !4
  %14 = getelementptr inbounds nuw %struct.lua_State, ptr %13, i32 0, i32 8
  %15 = load ptr, ptr %14, align 8, !tbaa !28
  %16 = getelementptr inbounds %union.TValue, ptr %15, i64 -1
  %17 = getelementptr inbounds nuw %struct.GCRef, ptr %16, i32 0, i32 0
  %18 = load i64, ptr %17, align 8, !tbaa !23
  %19 = and i64 %18, 140737488355327
  %20 = inttoptr i64 %19 to ptr
  store ptr %20, ptr %9, align 8, !tbaa !21
  %21 = load i32, ptr %7, align 4, !tbaa !24
  %22 = trunc i32 %21 to i8
  %23 = load ptr, ptr %9, align 8, !tbaa !21
  %24 = getelementptr inbounds nuw %struct.GCfuncC, ptr %23, i32 0, i32 3
  store i8 %22, ptr %24, align 2, !tbaa !23
  %25 = load ptr, ptr %5, align 8, !tbaa !4
  %26 = getelementptr inbounds nuw %struct.lua_State, ptr %25, i32 0, i32 5
  %27 = getelementptr inbounds nuw %struct.MRef, ptr %26, i32 0, i32 0
  %28 = load i64, ptr %27, align 8, !tbaa !25
  %29 = inttoptr i64 %28 to ptr
  %30 = getelementptr inbounds nuw %struct.global_State, ptr %29, i32 0, i32 22
  %31 = ptrtoint ptr %30 to i64
  %32 = load ptr, ptr %9, align 8, !tbaa !21
  %33 = getelementptr inbounds nuw %struct.GCfuncC, ptr %32, i32 0, i32 7
  %34 = getelementptr inbounds nuw %struct.MRef, ptr %33, i32 0, i32 0
  store i64 %31, ptr %34, align 8, !tbaa !23
  %35 = load ptr, ptr %9, align 8, !tbaa !21
  call void @llvm.lifetime.end.p0(i64 8, ptr %9) #9
  ret ptr %35
}

; Function Attrs: nounwind uwtable
define hidden i32 @lj_lib_postreg(ptr noundef %0, ptr noundef %1, i32 noundef %2, ptr noundef %3) #0 {
  %5 = alloca ptr, align 8
  %6 = alloca ptr, align 8
  %7 = alloca i32, align 4
  %8 = alloca ptr, align 8
  %9 = alloca ptr, align 8
  %10 = alloca ptr, align 8
  store ptr %0, ptr %5, align 8, !tbaa !4
  store ptr %1, ptr %6, align 8, !tbaa !11
  store i32 %2, ptr %7, align 4, !tbaa !24
  store ptr %3, ptr %8, align 8, !tbaa !9
  call void @llvm.lifetime.start.p0(i64 8, ptr %9) #9
  %11 = load ptr, ptr %5, align 8, !tbaa !4
  %12 = load ptr, ptr %6, align 8, !tbaa !11
  %13 = load i32, ptr %7, align 4, !tbaa !24
  %14 = call ptr @lj_lib_pushcc(ptr noundef %11, ptr noundef %12, i32 noundef %13, i32 noundef 0)
  store ptr %14, ptr %9, align 8, !tbaa !21
  call void @llvm.lifetime.start.p0(i64 8, ptr %10) #9
  %15 = load ptr, ptr %5, align 8, !tbaa !4
  %16 = getelementptr inbounds nuw %struct.lua_State, ptr %15, i32 0, i32 7
  %17 = load ptr, ptr %16, align 8, !tbaa !29
  %18 = getelementptr inbounds %union.TValue, ptr %17, i64 -2
  %19 = getelementptr inbounds nuw %struct.GCRef, ptr %18, i32 0, i32 0
  %20 = load i64, ptr %19, align 8, !tbaa !23
  %21 = and i64 %20, 140737488355327
  %22 = inttoptr i64 %21 to ptr
  %23 = getelementptr inbounds nuw %struct.GCfuncC, ptr %22, i32 0, i32 5
  %24 = getelementptr inbounds nuw %struct.GCRef, ptr %23, i32 0, i32 0
  %25 = load i64, ptr %24, align 8, !tbaa !23
  %26 = inttoptr i64 %25 to ptr
  store ptr %26, ptr %10, align 8, !tbaa !19
  %27 = load ptr, ptr %5, align 8, !tbaa !4
  %28 = load ptr, ptr %5, align 8, !tbaa !4
  %29 = load ptr, ptr %10, align 8, !tbaa !19
  %30 = load ptr, ptr %5, align 8, !tbaa !4
  %31 = load ptr, ptr %8, align 8, !tbaa !9
  %32 = load ptr, ptr %8, align 8, !tbaa !9
  %33 = call i64 @strlen(ptr noundef %32) #11
  %34 = call ptr @lj_str_new(ptr noundef %30, ptr noundef %31, i64 noundef %33)
  %35 = call ptr @lj_tab_setstr(ptr noundef %28, ptr noundef %29, ptr noundef %34)
  %36 = load ptr, ptr %9, align 8, !tbaa !21
  call void @setfuncV(ptr noundef %27, ptr noundef %35, ptr noundef %36)
  %37 = load ptr, ptr %10, align 8, !tbaa !19
  %38 = getelementptr inbounds nuw %struct.GChead, ptr %37, i32 0, i32 1
  %39 = load i8, ptr %38, align 8, !tbaa !23
  %40 = zext i8 %39 to i32
  %41 = and i32 %40, 4
  %42 = icmp ne i32 %41, 0
  %43 = xor i1 %42, true
  %44 = xor i1 %43, true
  %45 = zext i1 %44 to i32
  %46 = sext i32 %45 to i64
  %47 = call i64 @llvm.expect.i64(i64 %46, i64 0)
  %48 = icmp ne i64 %47, 0
  br i1 %48, label %49, label %56

49:                                               ; preds = %4
  %50 = load ptr, ptr %5, align 8, !tbaa !4
  %51 = getelementptr inbounds nuw %struct.lua_State, ptr %50, i32 0, i32 5
  %52 = getelementptr inbounds nuw %struct.MRef, ptr %51, i32 0, i32 0
  %53 = load i64, ptr %52, align 8, !tbaa !25
  %54 = inttoptr i64 %53 to ptr
  %55 = load ptr, ptr %10, align 8, !tbaa !19
  call void @lj_gc_barrierback(ptr noundef %54, ptr noundef %55)
  br label %56

56:                                               ; preds = %49, %4
  %57 = load ptr, ptr %5, align 8, !tbaa !4
  %58 = load ptr, ptr %5, align 8, !tbaa !4
  %59 = getelementptr inbounds nuw %struct.lua_State, ptr %58, i32 0, i32 8
  %60 = load ptr, ptr %59, align 8, !tbaa !28
  %61 = getelementptr inbounds nuw %union.TValue, ptr %60, i32 1
  store ptr %61, ptr %59, align 8, !tbaa !28
  %62 = load ptr, ptr %9, align 8, !tbaa !21
  call void @setfuncV(ptr noundef %57, ptr noundef %60, ptr noundef %62)
  call void @llvm.lifetime.end.p0(i64 8, ptr %10) #9
  call void @llvm.lifetime.end.p0(i64 8, ptr %9) #9
  ret i32 1
}