; Function Attrs: nounwind uwtable
define hidden noundef i32 @lj_lib_postreg(ptr noundef %0, ptr noundef %1, i32 noundef %2, ptr noundef %3) local_unnamed_addr #0 {
  tail call void @lua_pushcclosure(ptr noundef %0, ptr noundef %1, i32 noundef 0) #8
  %5 = getelementptr inbounds nuw i8, ptr %0, i64 40
  %6 = load ptr, ptr %5, align 8, !tbaa !16
  %7 = getelementptr inbounds i8, ptr %6, i64 -8
  %8 = load i64, ptr %7, align 8, !tbaa !14
  %9 = and i64 %8, 140737488355327
  %10 = inttoptr i64 %9 to ptr
  %11 = trunc i32 %2 to i8
  %12 = getelementptr inbounds nuw i8, ptr %10, i64 10
  store i8 %11, ptr %12, align 2, !tbaa !14
  %13 = getelementptr inbounds nuw i8, ptr %0, i64 16
  %14 = load i64, ptr %13, align 8, !tbaa !15
  %15 = add nuw i64 %14, 360
  %16 = getelementptr inbounds nuw i8, ptr %10, i64 32
  store i64 %15, ptr %16, align 8, !tbaa !14
  %17 = getelementptr inbounds nuw i8, ptr %0, i64 32
  %18 = load ptr, ptr %17, align 8, !tbaa !17
  %19 = getelementptr inbounds i8, ptr %18, i64 -16
  %20 = load i64, ptr %19, align 8, !tbaa !14
  %21 = and i64 %20, 140737488355327
  %22 = inttoptr i64 %21 to ptr
  %23 = getelementptr inbounds nuw i8, ptr %22, i64 16
  %24 = load i64, ptr %23, align 8, !tbaa !14
  %25 = inttoptr i64 %24 to ptr
  %26 = tail call i64 @strlen(ptr noundef nonnull dereferenceable(1) %3) #10
  %27 = tail call ptr @lj_str_new(ptr noundef %0, ptr noundef nonnull %3, i64 noundef %26) #8
  %28 = tail call ptr @lj_tab_setstr(ptr noundef %0, ptr noundef %25, ptr noundef %27) #8
  %29 = or disjoint i64 %9, -1266637395197952
  store i64 %29, ptr %28, align 8, !tbaa !14
  %30 = getelementptr inbounds nuw i8, ptr %25, i64 8
  %31 = load i8, ptr %30, align 8, !tbaa !14
  %32 = and i8 %31, 4
  %.not = icmp eq i8 %32, 0
  br i1 %.not, label %40, label %33, !prof !18

33:                                               ; preds = %4
  %34 = load i64, ptr %13, align 8, !tbaa !15
  %35 = inttoptr i64 %34 to ptr
  %36 = and i8 %31, -5
  store i8 %36, ptr %30, align 8, !tbaa !14
  %37 = getelementptr inbounds nuw i8, ptr %35, i64 64
  %38 = load i64, ptr %37, align 8, !tbaa !19
  %39 = getelementptr inbounds nuw i8, ptr %25, i64 24
  store i64 %38, ptr %39, align 8, !tbaa !30
  store i64 %24, ptr %37, align 8, !tbaa !19
  br label %40

40:                                               ; preds = %33, %4
  %41 = load ptr, ptr %5, align 8, !tbaa !16
  %42 = getelementptr inbounds nuw i8, ptr %41, i64 8
  store ptr %42, ptr %5, align 8, !tbaa !16
  store i64 %29, ptr %41, align 8, !tbaa !14
  ret i32 1
}